target datalayout = "e-m:e-p270:32:32-p271:32:32-p272:64:64-i64:64-i128:128-f80:128-n8:16:32:64-S128"
target triple = "x86_64-pc-linux-gnu"

%struct.redisServer = type { i32, i64, ptr, ptr, ptr, i32, i32, i32, i32, i32, ptr, ptr, ptr, ptr, ptr, i32, i32, i32, i32, i64, i32, i32, i32, i32, ptr, i32, i32, [41 x i8], i32, i64, i32, i32, i32, ptr, ptr, i32, i32, i64, ptr, ptr, ptr, ptr, [2 x i32], i32, i32, i32, i32, i32, i32, [16 x ptr], i32, ptr, ptr, i32, [8 x %struct.connListener], i32, %struct.connListener, ptr, ptr, ptr, ptr, ptr, ptr, ptr, ptr, ptr, ptr, i32, ptr, i32, ptr, [3 x %struct.pause_event], [256 x i8], ptr, i64, i32, i32, [128 x i32], i32, i32, i64, i32, i32, i32, i32, i32, i64, i64, i64, i64, i64, i64, i64, i64, i64, i64, double, i64, i64, i64, i64, i64, i64, i64, i64, i64, i64, i64, i64, i64, i64, i64, i64, i64, i64, i64, i64, i64, double, i64, i64, i64, i64, i64, ptr, i64, i64, i64, %struct.malloc_stats, i64, i64, i64, i64, i64, i64, i64, i64, i64, i64, i64, i64, double, [4 x i64], i64, i64, i64, i64, [128 x i64], [128 x i64], i64, i64, [7 x %struct.anon], i64, i64, i64, i64, i64, i64, [4 x %struct.durationStats], i32, i32, i32, i32, i32, i32, i32, i32, i32, i32, i32, i32, i64, i32, i32, i32, i32, i64, i64, i32, i32, i32, i32, i32, ptr, [3 x %struct.clientBufferLimitsConfig], i32, i32, i32, ptr, i32, i32, i32, i32, i32, i32, ptr, ptr, i32, i32, i64, i64, i64, i64, i64, i32, i32, ptr, i32, i32, i64, i64, i64, i64, i64, i32, i32, i64, i32, i32, i32, i32, i32, i32, i32, i32, ptr, i32, i64, i64, i64, i64, i32, ptr, i32, ptr, i32, i32, i32, i64, i64, i64, i64, i32, i32, i32, i32, i32, i32, ptr, i32, i32, ptr, i32, i32, i32, [2 x i32], i32, %struct.redisOpArray, i32, ptr, i32, ptr, i32, i32, i32, i32, i32, i32, i32, [41 x i8], [41 x i8], i64, i64, i64, i64, i32, i32, ptr, i64, i64, %struct.replDataBuf, i64, i64, i32, i32, i32, i32, i32, i32, i32, i32, i32, i64, ptr, i64, ptr, ptr, ptr, i32, i32, ptr, ptr, i32, i32, i32, i64, i64, i64, i64, ptr, ptr, i32, ptr, i64, i32, i32, i32, i64, i32, i32, i32, i32, ptr, i32, i32, [41 x i8], i64, i32, ptr, i32, i32, i64, i64, i32, i32, i32, i32, i32, i64, [3 x i32], i32, i32, i32, [10 x i32], ptr, ptr, i32, i64, ptr, ptr, i32, i32, i32, i32, i64, i64, i64, i64, i64, i64, i64, i64, i64, i64, i32, i32, i64, i64, i32, i64, i64, i64, i64, i64, ptr, ptr, i32, ptr, i32, i32, i32, i32, i64, i64, ptr, ptr, i32, i32, i32, i32, i32, ptr, ptr, ptr, i32, i32, i32, i32, i32, i32, i32, i64, i32, i32, i64, i32, i32, i32, i32, i32, i32, i32, i64, ptr, ptr, i64, ptr, i32, %struct.aclInfo, i32, i64, i32, i32, i32, %struct.redisTLSContextConfig, ptr, ptr, ptr, ptr, ptr, i64, i32, ptr, i32, i32, i32, i64, i32, ptr }
%struct.connListener = type { [16 x i32], i32, ptr, i32, i32, ptr, ptr }
%struct.pause_event = type { i32, i64 }
%struct.malloc_stats = type { i64, i64, i64, i64, i64, i64, i64, i64, i64, i64, i64 }
%struct.anon = type { i64, i64, [16 x i64], i32 }
%struct.durationStats = type { i64, i64, i64 }
%struct.clientBufferLimitsConfig = type { i64, i64, i64 }
%struct.redisOpArray = type { ptr, i32, i32 }
%struct.replDataBuf = type { ptr, i64, i64, i64, i64 }
%struct.aclInfo = type { i64, i64, i64, i64 }
%struct.redisTLSContextConfig = type { ptr, ptr, ptr, ptr, ptr, ptr, ptr, ptr, ptr, ptr, ptr, ptr, i32, i32, i32, i32 }

@server = external global %struct.redisServer, align 8

; Function Attrs: nounwind uwtable
define dso_local i32 @getLRUClock() #0 {
  %1 = call i64 @mstime()
  %2 = sdiv i64 %1, 1000
  %3 = and i64 %2, 16777215
  %4 = trunc i64 %3 to i32
  ret i32 %4
}

; Function Attrs: nounwind uwtable
define dso_local i32 @LRU_CLOCK() #0 {
  %1 = alloca i32, align 4
  call void @llvm.lifetime.start.p0(i64 4, ptr %1) #11
  %2 = load i32, ptr getelementptr inbounds nuw (%struct.redisServer, ptr @server, i32 0, i32 8), align 4, !tbaa !5
  %3 = sdiv i32 1000, %2
  %4 = icmp sle i32 %3, 1000
  br i1 %4, label %5, label %7

5:                                                ; preds = %0
  %6 = load i32, ptr getelementptr inbounds nuw (%struct.redisServer, ptr @server, i32 0, i32 16), align 4, !tbaa !38
  store i32 %6, ptr %1, align 4, !tbaa !39
  br label %9

7:                                                ; preds = %0
  %8 = call i32 @getLRUClock()
  store i32 %8, ptr %1, align 4, !tbaa !39
  br label %9

9:                                                ; preds = %7, %5
  %10 = load i32, ptr %1, align 4, !tbaa !39
  call void @llvm.lifetime.end.p0(i64 4, ptr %1) #11
  ret i32 %10
}

; Function Attrs: nounwind uwtable
define dso_local i64 @estimateObjectIdleTime(ptr noundef %0) #0 {
  %2 = alloca i64, align 8
  %3 = alloca ptr, align 8
  %4 = alloca i64, align 8
  %5 = alloca i32, align 4
  store ptr %0, ptr %3, align 8, !tbaa !40
  call void @llvm.lifetime.start.p0(i64 8, ptr %4) #11
  %6 = call i32 @LRU_CLOCK()
  %7 = zext i32 %6 to i64
  store i64 %7, ptr %4, align 8, !tbaa !42
  %8 = load i64, ptr %4, align 8, !tbaa !42
  %9 = load ptr, ptr %3, align 8, !tbaa !40
  %10 = load i32, ptr %9, align 8
  %11 = lshr i32 %10, 8
  %12 = zext i32 %11 to i64
  %13 = icmp uge i64 %8, %12
  br i1 %13, label %14, label %22

14:                                               ; preds = %1
  %15 = load i64, ptr %4, align 8, !tbaa !42
  %16 = load ptr, ptr %3, align 8, !tbaa !40
  %17 = load i32, ptr %16, align 8
  %18 = lshr i32 %17, 8
  %19 = zext i32 %18 to i64
  %20 = sub i64 %15, %19
  %21 = mul i64 %20, 1000
  store i64 %21, ptr %2, align 8
  store i32 1, ptr %5, align 4
  br label %31

22:                                               ; preds = %1
  %23 = load i64, ptr %4, align 8, !tbaa !42
  %24 = load ptr, ptr %3, align 8, !tbaa !40
  %25 = load i32, ptr %24, align 8
  %26 = lshr i32 %25, 8
  %27 = sub nsw i32 16777215, %26
  %28 = sext i32 %27 to i64
  %29 = add i64 %23, %28
  %30 = mul i64 %29, 1000
  store i64 %30, ptr %2, align 8
  store i32 1, ptr %5, align 4
  br label %31

31:                                               ; preds = %22, %14
  call void @llvm.lifetime.end.p0(i64 8, ptr %4) #11
  %32 = load i64, ptr %2, align 8
  ret i64 %32
}