; Function Attrs: mustprogress nofree norecurse nosync nounwind willreturn memory(read, inaccessiblemem: none) uwtable
define dso_local range(i64 0, 4311744510001) i64 @estimateObjectIdleTime(ptr noundef readonly captures(none) %0) local_unnamed_addr #4 {
  %2 = load i32, ptr getelementptr inbounds nuw (i8, ptr @server, i64 108), align 4, !tbaa !5
  %3 = load i32, ptr %0, align 8
  %4 = lshr i32 %3, 8
  %.not = icmp ult i32 %2, %4
  %narrow = sub nuw i32 %2, %4
  %5 = zext i32 %narrow to i64
  %6 = zext i32 %2 to i64
  %7 = xor i32 %4, 16777215
  %8 = zext nneg i32 %7 to i64
  %9 = add nuw nsw i64 %8, %6
  %.0.in = select i1 %.not, i64 %9, i64 %5
  %.0 = mul nuw nsw i64 %.0.in, 1000
  ret i64 %.0
}